Certificate:
    Data:
        Version: 3 (0x2)
        Serial Number: 1 (0x1)
        Signature Algorithm: sha256WithRSAEncryption
        Issuer: C=FR, ST=Radius, L=Somewhere, O=Example Inc./emailAddress=admin@example.org, CN=Example Certificate Authority
        Validity
            Not Before: Dec 23 13:39:14 2019 GMT
            Not After : Feb 21 13:39:14 2020 GMT
        Subject: C=FR, ST=Radius, O=Example Inc., CN=Example Server Certificate/emailAddress=admin@example.org
        Subject Public Key Info:
            Public Key Algorithm: rsaEncryption
                RSA Public-Key: (2048 bit)
                Modulus:
                    00:dc:e2:15:9a:cf:00:cf:ab:05:b7:bd:b2:f7:ef:
                    07:a4:5a:83:83:8d:c4:3e:b1:76:c3:b3:d3:2a:09:
                    d8:7e:c3:87:32:17:08:b0:55:42:70:a6:fe:39:d9:
                    8a:a3:fc:4f:6a:33:f4:8e:de:a1:c3:51:7e:fb:6f:
                    eb:ca:3c:18:66:a3:46:84:fb:54:7b:f4:11:dd:34:
                    06:eb:b8:c3:c5:9e:d0:64:1c:af:4f:3b:cc:9e:64:
                    e5:36:8f:5c:a7:91:5e:39:ae:04:4b:ed:d6:6e:1b:
                    d6:61:34:17:03:c6:a0:a5:69:e7:14:72:a9:6c:65:
                    c5:00:70:37:26:d0:68:1c:ea:fb:8e:ce:d9:20:05:
                    b1:71:86:85:82:5f:20:81:ca:a1:0f:18:1b:26:14:
                    6c:0e:ab:ab:47:17:e7:0a:df:88:fd:bd:40:0b:7e:
                    de:58:76:9d:96:54:09:01:24:f4:c4:ef:3b:3e:1d:
                    b4:ae:8f:2e:b8:72:96:30:04:a6:6f:e3:8f:c0:76:
                    a9:92:44:f8:3a:76:82:de:98:d9:6e:fc:4e:56:3f:
                    16:41:ca:42:ee:34:31:43:d3:56:ad:0b:29:5b:27:
                    21:a4:39:03:9d:27:44:5f:28:06:2d:f9:de:09:74:
                    cc:91:d8:81:41:24:2a:f6:c9:5e:dd:c8:86:96:38:
                    f9:9b
                Exponent: 65537 (0x10001)
        X509v3 extensions:
            X509v3 Extended Key Usage: 
                TLS Web Server Authentication
            X509v3 CRL Distribution Points: 

                Full Name:
                  URI:http://www.example.com/example_ca.crl

    Signature Algorithm: sha256WithRSAEncryption
         68:f0:c3:0d:d0:a1:37:2e:2a:8e:ef:39:cf:c7:d5:d2:68:df:
         9b:f6:a2:e7:46:9b:5f:f3:1b:c6:72:24:75:86:cd:60:00:58:
         85:a2:fc:d4:3b:a7:b8:6e:9c:f2:aa:1c:ef:28:95:0c:72:ec:
         dc:6e:85:67:b9:00:3a:8c:ff:15:d7:fe:d4:e0:c2:0b:18:c8:
         64:12:9f:b3:a0:cb:b4:88:ac:b6:64:f9:09:f3:48:b8:69:8a:
         48:a8:a3:ff:bc:c9:02:e4:36:7f:a9:c3:4e:f1:85:f0:75:c3:
         9b:88:05:db:03:8d:bf:33:24:80:c5:1d:ca:2f:cb:fa:bc:05:
         3f:b6:15:8e:54:ed:95:7a:a1:7a:1f:d2:2f:60:d6:ec:90:1b:
         e4:e0:41:5b:dc:7f:9a:6b:2a:62:46:8d:05:f8:8c:74:3f:cb:
         97:37:77:af:dc:3d:0b:aa:ba:52:08:4d:52:9c:38:ae:98:de:
         3a:62:e8:0c:fa:4d:4c:51:b0:cb:8a:2c:ea:48:cd:77:c7:c4:
         fa:eb:87:b0:62:09:e9:64:0c:5b:69:6d:18:03:83:ef:7a:c3:
         5f:f9:d8:76:d9:38:02:77:ae:90:24:7f:76:86:5b:14:c4:7e:
         d5:eb:c4:f2:5b:fb:10:77:69:36:41:1e:a3:52:9e:02:08:37:
         fb:84:2e:fd
-----BEGIN CERTIFICATE-----
MIID2jCCAsKgAwIBAgIBATANBgkqhkiG9w0BAQsFADCBkzELMAkGA1UEBhMCRlIx
DzANBgNVBAgMBlJhZGl1czESMBAGA1UEBwwJU29tZXdoZXJlMRUwEwYDVQQKDAxF
eGFtcGxlIEluYy4xIDAeBgkqhkiG9w0BCQEWEWFkbWluQGV4YW1wbGUub3JnMSYw
JAYDVQQDDB1FeGFtcGxlIENlcnRpZmljYXRlIEF1dGhvcml0eTAeFw0xOTEyMjMx
MzM5MTRaFw0yMDAyMjExMzM5MTRaMHwxCzAJBgNVBAYTAkZSMQ8wDQYDVQQIDAZS
YWRpdXMxFTATBgNVBAoMDEV4YW1wbGUgSW5jLjEjMCEGA1UEAwwaRXhhbXBsZSBT
ZXJ2ZXIgQ2VydGlmaWNhdGUxIDAeBgkqhkiG9w0BCQEWEWFkbWluQGV4YW1wbGUu
b3JnMIIBIjANBgkqhkiG9w0BAQEFAAOCAQ8AMIIBCgKCAQEA3OIVms8Az6sFt72y
9+8HpFqDg43EPrF2w7PTKgnYfsOHMhcIsFVCcKb+OdmKo/xPajP0jt6hw1F++2/r
yjwYZqNGhPtUe/QR3TQG67jDxZ7QZByvTzvMnmTlNo9cp5FeOa4ES+3WbhvWYTQX
A8agpWnnFHKpbGXFAHA3JtBoHOr7js7ZIAWxcYaFgl8ggcqhDxgbJhRsDqurRxfn
Ct+I/b1AC37eWHadllQJAST0xO87Ph20ro8uuHKWMASmb+OPwHapkkT4OnaC3pjZ
bvxOVj8WQcpC7jQxQ9NWrQspWychpDkDnSdEXygGLfneCXTMkdiBQSQq9sle3ciG
ljj5mwIDAQABo08wTTATBgNVHSUEDDAKBggrBgEFBQcDATA2BgNVHR8ELzAtMCug
KaAnhiVodHRwOi8vd3d3LmV4YW1wbGUuY29tL2V4YW1wbGVfY2EuY3JsMA0GCSqG
SIb3DQEBCwUAA4IBAQBo8MMN0KE3LiqO7znPx9XSaN+b9qLnRptf8xvGciR1hs1g
AFiFovzUO6e4bpzyqhzvKJUMcuzcboVnuQA6jP8V1/7U4MILGMhkEp+zoMu0iKy2
ZPkJ80i4aYpIqKP/vMkC5DZ/qcNO8YXwdcObiAXbA42/MySAxR3KL8v6vAU/thWO
VO2VeqF6H9IvYNbskBvk4EFb3H+aaypiRo0F+Ix0P8uXN3ev3D0LqrpSCE1SnDiu
mN46YugM+k1MUbDLiizqSM13x8T664ewYgnpZAxbaW0YA4PvesNf+dh22TgCd66Q
JH92hlsUxH7V68TyW/sQd2k2QR6jUp4CCDf7hC79
-----END CERTIFICATE-----
